; Function Attrs: mustprogress uwtable
define hidden void @_ZN7nanogui5Label9set_themeEPNS_5ThemeE(ptr noundef nonnull align 8 dereferenceable(224) %0, ptr noundef %1) unnamed_addr #4 align 2 {
  tail call void @_ZN7nanogui6Widget9set_themeEPNS_5ThemeE(ptr noundef nonnull align 8 dereferenceable(140) %0, ptr noundef %1)
  %3 = getelementptr inbounds i8, ptr %0, i64 24
  %4 = load ptr, ptr %3, align 8
  %.not = icmp eq ptr %4, null
  br i1 %.not, label %11, label %5

5:                                                ; preds = %2
  %6 = getelementptr inbounds i8, ptr %4, i64 32
  %7 = load i32, ptr %6, align 8
  %8 = getelementptr inbounds i8, ptr %0, i64 128
  store i32 %7, ptr %8, align 8
  %9 = getelementptr inbounds i8, ptr %4, i64 168
  %10 = getelementptr inbounds i8, ptr %0, i64 208
  tail call void @llvm.memcpy.p0.p0.i64(ptr noundef nonnull align 8 dereferenceable(16) %10, ptr noundef nonnull align 8 dereferenceable(16) %9, i64 16, i1 false)
  br label %11

11:                                               ; preds = %5, %2
  ret void
}